Certificate:
    Data:
        Version: 3 (0x2)
        Serial Number: 6 (0x6)
        Signature Algorithm: sha1WithRSAEncryption
        Issuer: C=BA, ST=RS, L=Banja Luka, O=ETF, OU=ETF_CA, CN=ETF_CA/emailAddress=ETF_CA@GMAIL.COM
        Validity
            Not Before: Feb  9 13:46:28 2023 GMT
            Not After : Aug  8 13:46:28 2023 GMT
        Subject: C=BH, ST=RS, O=ETF, OU=ETF_STUDENT, CN=milena/emailAddress=milena@gmail.com
        Subject Public Key Info:
            Public Key Algorithm: rsaEncryption
                Public-Key: (8192 bit)
                Modulus:
                    00:9d:23:a4:42:da:c7:49:99:33:86:41:27:ba:45:
                    06:b5:13:d1:4d:d1:be:42:c6:d7:a3:ce:2e:05:36:
                    d0:f0:17:20:64:59:14:35:f3:eb:a5:f4:fd:0a:5f:
                    a4:6c:cd:af:53:87:08:3d:ce:32:b4:a2:d2:64:84:
                    0f:20:2f:24:5d:5a:6a:cf:24:29:8a:79:7d:39:fc:
                    0d:bc:5c:22:53:61:f6:b3:6d:4b:e7:12:d5:bf:36:
                    c3:a3:26:16:4e:7e:3f:76:0a:f0:5e:60:a5:dc:e0:
                    b4:7f:11:d5:f4:3a:17:e7:10:2f:1f:1c:7f:1a:3d:
                    8b:a9:3f:4d:4b:59:42:1c:2b:09:b6:a9:fb:9d:3d:
                    2a:ee:96:56:b0:ad:13:b9:b4:63:aa:5a:e6:42:7a:
                    6b:73:ac:e3:fb:db:21:1d:8b:1d:d7:b3:0f:83:2f:
                    31:21:86:bc:9d:29:fc:36:f4:c6:7c:a8:48:97:5f:
                    59:47:09:96:cf:42:ca:34:2a:f8:fe:a0:bc:ea:25:
                    ba:ff:3e:66:37:0b:23:21:e4:42:6e:88:b6:1b:78:
                    4a:5c:20:f1:69:d1:48:2b:ca:85:93:e0:6d:8a:f8:
                    b8:ae:85:65:ff:eb:6b:06:55:5f:e7:ad:95:89:22:
                    b6:3e:c6:bd:b9:4b:cb:78:0a:b2:07:22:43:4d:be:
                    c1:8f:eb:2f:b8:f4:a8:ac:ec:48:f9:c4:a2:b9:63:
                    3a:df:e3:a4:6e:e1:56:c8:55:7d:f6:ea:21:72:09:
                    f7:84:a3:77:2a:0d:ad:f4:13:6b:01:49:a3:1e:b0:
                    b5:3b:84:ef:79:51:6a:a8:e7:ba:ab:e2:ab:4a:62:
                    1a:1e:f2:90:6f:1d:d9:5b:97:73:cd:59:d9:40:d0:
                    82:74:f0:9a:f7:05:28:27:1b:b3:c3:ac:e6:51:bf:
                    19:c4:6a:0a:3e:e5:65:d6:00:22:67:31:29:d7:d7:
                    29:8f:a4:52:0a:43:c3:58:68:c4:e1:5a:0b:76:60:
                    39:bd:5e:ef:be:16:03:61:a3:d8:ea:eb:aa:3f:16:
                    3d:da:ef:1a:19:13:25:3e:b1:ba:87:2e:0e:b5:c8:
                    45:d2:b3:78:e5:fd:8e:ac:86:80:60:9e:57:61:55:
                    c0:b2:ec:57:5a:6f:91:33:6c:74:00:2a:3f:94:b4:
                    49:06:ca:6f:bf:41:d0:32:7f:8a:69:27:56:76:c0:
                    42:d7:e8:e2:aa:a7:10:0a:57:98:68:0f:ea:a6:3e:
                    01:50:a5:10:a1:12:38:30:49:49:6c:cc:1b:04:08:
                    37:be:ad:34:10:20:63:22:95:a2:1a:2e:4f:87:e9:
                    43:1c:f9:80:8d:0d:1c:51:5b:22:a5:dc:f9:39:84:
                    32:af:fb:b6:9b:51:3d:ae:86:43:b5:4f:ee:d0:dd:
                    dc:06:3d:f0:bf:5b:7c:bc:8d:70:8b:85:61:4d:d4:
                    7c:05:f8:3c:a2:90:11:f7:5d:34:4f:76:09:b0:c1:
                    24:64:99:f4:d4:03:57:f9:12:f1:fe:1e:f9:ec:36:
                    e3:5e:66:f5:6c:98:fe:2a:e6:c9:f7:ec:f8:84:1b:
                    86:46:6c:b8:75:b2:33:8d:3a:8f:b3:3c:f3:3d:4f:
                    50:b6:93:b4:8c:7c:9e:13:9f:d9:ba:0c:92:13:42:
                    44:80:5a:40:c3:c4:92:eb:85:9e:ba:e9:9a:d7:6f:
                    27:36:da:3a:14:38:66:12:db:b6:2e:20:d2:f6:d2:
                    dd:08:83:a4:87:49:c1:dd:23:97:b7:51:91:b4:ae:
                    3c:93:a6:4f:c9:3f:4e:5c:b3:e9:2f:e0:bd:68:3b:
                    fc:57:9c:89:7a:fe:4c:9d:07:0d:b5:35:ca:ac:4f:
                    e4:61:3b:75:04:66:5a:1b:71:0c:3a:aa:bf:9c:c5:
                    9b:9f:5d:8b:0e:d1:00:eb:5d:18:48:df:4c:6e:32:
                    ab:87:d8:fa:ab:af:84:4d:a4:dd:c3:10:84:88:85:
                    52:39:e2:24:d8:11:27:e9:d9:b8:47:e4:f2:de:6f:
                    4a:47:ba:7c:45:3f:28:44:c7:69:a6:09:d4:f6:83:
                    0a:e8:60:3f:d3:70:03:7f:d3:0c:32:53:fa:db:7b:
                    75:a2:0d:0b:16:b5:eb:2a:0e:90:ff:25:12:c9:d7:
                    b5:52:bf:f0:22:bc:8d:31:49:d6:88:fe:c6:14:32:
                    a3:be:6f:a8:76:ce:7a:8a:7a:38:fc:c0:3c:47:fe:
                    4f:77:4d:25:61:12:ee:e8:57:02:d6:b1:62:40:1f:
                    f4:60:98:88:2a:23:9b:65:15:42:ad:c6:ea:0d:11:
                    f7:5c:dc:50:21:6d:42:93:d5:62:3b:e4:67:62:f7:
                    f4:98:92:b7:f5:d8:c0:06:56:aa:32:e7:11:82:34:
                    59:e2:08:76:bf:92:c0:1a:bf:66:a5:f0:d5:26:cf:
                    58:3d:55:a6:83:fb:be:4b:40:28:aa:92:28:b9:f8:
                    0c:00:d4:89:87:9c:0d:93:06:6b:40:5e:7a:b9:7e:
                    1f:ec:45:e1:8c:a4:27:1b:fb:f5:27:95:8e:d4:53:
                    2e:dd:dd:dd:e2:60:9c:14:b2:b6:6a:18:51:83:16:
                    1c:f5:9e:7f:b6:af:79:f6:23:05:83:79:14:3b:a6:
                    de:ef:38:fa:70:48:95:d7:14:ab:1e:ae:9a:6c:2d:
                    e0:a0:23:65:d0:27:ed:f6:91:25:03:63:e4:43:32:
                    b3:69:49:51:d9:4b:28:bd:b8:d7:a0:a9:ca:61:37:
                    6a:b0:ee:43:25
                Exponent: 65537 (0x10001)
        X509v3 extensions:
            X509v3 Basic Constraints: 
                CA:FALSE
            X509v3 Key Usage: 
                Digital Signature, Data Encipherment
            X509v3 Extended Key Usage: 
                TLS Web Client Authentication
            Netscape Comment: 
                OpenSSL Generated Certificate
            X509v3 Subject Key Identifier: 
                68:50:5D:C2:0B:E0:78:9F:DF:1A:79:D3:16:0A:DC:CD:0C:FB:0E:F1
            X509v3 Authority Key Identifier: 
                DE:69:C1:62:2F:64:31:7C:50:29:B9:79:35:59:C6:A6:95:E8:02:87
            X509v3 CRL Distribution Points: 
                Full Name:
                  URI:http://192.168.21.89/rootcrl.pem
    Signature Algorithm: sha1WithRSAEncryption
    Signature Value:
        6f:d7:d8:d9:14:13:32:ec:1f:e4:7e:8d:b0:df:cb:ce:ed:69:
        8b:82:6f:27:19:ef:7b:a1:05:a8:22:69:57:eb:b5:10:2e:d9:
        f9:4a:61:c9:62:00:34:22:6e:5e:6f:ec:80:80:52:07:3d:d4:
        f7:6c:be:f6:e8:71:01:70:5a:a8:d4:24:ca:19:d7:33:b2:17:
        7c:b1:39:51:49:3e:9f:b3:28:c5:a0:8d:e0:db:3b:d9:62:04:
        5f:7b:6d:b6:5f:40:1c:41:ff:24:72:4a:2b:aa:12:78:44:10:
        60:ea:8f:ab:92:9c:f7:d7:8c:12:09:ee:9d:b8:42:b8:f6:5a:
        a4:43:6a:e6:fc:4f:a5:fe:77:89:e7:bc:91:ab:aa:0a:00:bf:
        e6:08:c3:f8:b8:21:39:c5:11:a0:d7:aa:24:de:c7:c9:7f:6a:
        0c:f4:3a:a5:41:9a:9a:f0:33:94:8f:47:f4:0c:f4:47:e5:bf:
        74:59:39:44:00:78:21:ee:4e:d7:d3:12:62:69:47:af:05:57:
        30:b8:ec:4e:1a:29:ff:90:a0:98:78:d5:87:3e:02:e8:15:74:
        30:f1:49:21:7c:90:db:5b:dd:04:1d:0b:4f:bc:35:18:99:3f:
        0c:04:6e:e4:bd:55:be:ed:a7:31:12:e5:13:e2:d1:50:3e:dc:
        fc:27:61:ff:72:0a:70:7a:e6:76:de:d7:02:6d:a4:7e:0a:ac:
        1f:26:3d:94:5b:c9:9b:c8:9c:2b:62:38:49:75:c4:b3:9c:f4:
        fe:b3:17:a1:bf:49:dd:83:75:7e:5c:2d:77:58:3d:e8:fb:19:
        60:29:1b:66:1a:05:45:ff:c5:22:28:d5:73:30:d6:9b:7c:f2:
        bc:b3:2c:61:02:55:19:88:51:ff:c4:76:c2:65:9b:8d:f7:75:
        49:c0:65:a8:41:ff:55:52:84:11:bc:8a:e8:58:80:17:3a:3d:
        08:d9:3b:0f:39:ff:b8:55:51:e9:77:db:73:d2:78:c0:18:1f:
        c9:8b:7b:f3:1b:71:bc:9d:ff:d7:1e:25:d8:65:24:09:c3:3a:
        4d:cc:74:ae:fa:7a:dd:84:54:9c:c6:94:0d:d0:95:92:32:81:
        0b:53:c0:69:15:98:2e:11:b2:85:7d:05:a4:5f:3e:be:81:e8:
        d8:8f:99:70:eb:28:5b:f9:a2:6d:8b:f9:57:55:12:64:5a:fc:
        88:3f:c7:37:2f:37:44:70:24:a7:48:2d:e1:e8:82:76:9f:13:
        6b:39:26:a9:a2:ad:6e:b0:5f:a0:2f:68:ae:fe:57:6e:8f:c7:
        52:8c:68:85:ef:fa:4a:a3:67:3c:82:f9:cd:04:7b:da:e9:7c:
        e5:9e:e2:5b:9c:4f:4e:94
-----BEGIN CERTIFICATE-----
MIIIPjCCBiagAwIBAgIBBjANBgkqhkiG9w0BAQUFADCBgDELMAkGA1UEBhMCQkEx
CzAJBgNVBAgTAlJTMRMwEQYDVQQHEwpCYW5qYSBMdWthMQwwCgYDVQQKEwNFVEYx
DzANBgNVBAsUBkVURl9DQTEPMA0GA1UEAxQGRVRGX0NBMR8wHQYJKoZIhvcNAQkB
FhBFVEZfQ0FAR01BSUwuQ09NMB4XDTIzMDIwOTEzNDYyOFoXDTIzMDgwODEzNDYy
OFowcDELMAkGA1UEBhMCQkgxCzAJBgNVBAgTAlJTMQwwCgYDVQQKEwNFVEYxFDAS
BgNVBAsUC0VURl9TVFVERU5UMQ8wDQYDVQQDEwZtaWxlbmExHzAdBgkqhkiG9w0B
CQEWEG1pbGVuYUBnbWFpbC5jb20wggQiMA0GCSqGSIb3DQEBAQUAA4IEDwAwggQK
AoIEAQCdI6RC2sdJmTOGQSe6RQa1E9FN0b5Cxtejzi4FNtDwFyBkWRQ18+ul9P0K
X6Rsza9Thwg9zjK0otJkhA8gLyRdWmrPJCmKeX05/A28XCJTYfazbUvnEtW/NsOj
JhZOfj92CvBeYKXc4LR/EdX0OhfnEC8fHH8aPYupP01LWUIcKwm2qfudPSrullaw
rRO5tGOqWuZCemtzrOP72yEdix3Xsw+DLzEhhrydKfw29MZ8qEiXX1lHCZbPQso0
Kvj+oLzqJbr/PmY3CyMh5EJuiLYbeEpcIPFp0UgryoWT4G2K+LiuhWX/62sGVV/n
rZWJIrY+xr25S8t4CrIHIkNNvsGP6y+49Kis7Ej5xKK5Yzrf46Ru4VbIVX326iFy
CfeEo3cqDa30E2sBSaMesLU7hO95UWqo57qr4qtKYhoe8pBvHdlbl3PNWdlA0IJ0
8Jr3BSgnG7PDrOZRvxnEago+5WXWACJnMSnX1ymPpFIKQ8NYaMThWgt2YDm9Xu++
FgNho9jq66o/Fj3a7xoZEyU+sbqHLg61yEXSs3jl/Y6shoBgnldhVcCy7Fdab5Ez
bHQAKj+UtEkGym+/QdAyf4ppJ1Z2wELX6OKqpxAKV5hoD+qmPgFQpRChEjgwSUls
zBsECDe+rTQQIGMilaIaLk+H6UMc+YCNDRxRWyKl3Pk5hDKv+7abUT2uhkO1T+7Q
3dwGPfC/W3y8jXCLhWFN1HwF+DyikBH3XTRPdgmwwSRkmfTUA1f5EvH+HvnsNuNe
ZvVsmP4q5sn37PiEG4ZGbLh1sjONOo+zPPM9T1C2k7SMfJ4Tn9m6DJITQkSAWkDD
xJLrhZ666ZrXbyc22joUOGYS27YuINL20t0Ig6SHScHdI5e3UZG0rjyTpk/JP05c
s+kv4L1oO/xXnIl6/kydBw21NcqsT+RhO3UEZlobcQw6qr+cxZufXYsO0QDrXRhI
30xuMquH2Pqrr4RNpN3DEISIhVI54iTYESfp2bhH5PLeb0pHunxFPyhEx2mmCdT2
gwroYD/TcAN/0wwyU/rbe3WiDQsWtesqDpD/JRLJ17VSv/AivI0xSdaI/sYUMqO+
b6h2znqKejj8wDxH/k93TSVhEu7oVwLWsWJAH/RgmIgqI5tlFUKtxuoNEfdc3FAh
bUKT1WI75Gdi9/SYkrf12MAGVqoy5xGCNFniCHa/ksAav2al8NUmz1g9VaaD+75L
QCiqkii5+AwA1ImHnA2TBmtAXnq5fh/sReGMpCcb+/UnlY7UUy7d3d3iYJwUsrZq
GFGDFhz1nn+2r3n2IwWDeRQ7pt7vOPpwSJXXFKserppsLeCgI2XQJ+32kSUDY+RD
MrNpSVHZSyi9uNegqcphN2qw7kMlAgMBAAGjgdEwgc4wCQYDVR0TBAIwADALBgNV
HQ8EBAMCBJAwEwYDVR0lBAwwCgYIKwYBBQUHAwIwLAYJYIZIAYb4QgENBB8WHU9w
ZW5TU0wgR2VuZXJhdGVkIENlcnRpZmljYXRlMB0GA1UdDgQWBBRoUF3CC+B4n98a
edMWCtzNDPsO8TAfBgNVHSMEGDAWgBTeacFiL2QxfFApuXk1WcamlegChzAxBgNV
HR8EKjAoMCagJKAihiBodHRwOi8vMTkyLjE2OC4yMS44OS9yb290Y3JsLnBlbTAN
BgkqhkiG9w0BAQUFAAOCAgEAb9fY2RQTMuwf5H6NsN/Lzu1pi4JvJxnve6EFqCJp
V+u1EC7Z+UphyWIANCJuXm/sgIBSBz3U92y+9uhxAXBaqNQkyhnXM7IXfLE5UUk+
n7MoxaCN4Ns72WIEX3tttl9AHEH/JHJKK6oSeEQQYOqPq5Kc99eMEgnunbhCuPZa
pENq5vxPpf53iee8kauqCgC/5gjD+LghOcURoNeqJN7HyX9qDPQ6pUGamvAzlI9H
9Az0R+W/dFk5RAB4Ie5O19MSYmlHrwVXMLjsThop/5CgmHjVhz4C6BV0MPFJIXyQ
21vdBB0LT7w1GJk/DARu5L1Vvu2nMRLlE+LRUD7c/Cdh/3IKcHrmdt7XAm2kfgqs
HyY9lFvJm8icK2I4SXXEs5z0/rMXob9J3YN1flwtd1g96PsZYCkbZhoFRf/FIijV
czDWm3zyvLMsYQJVGYhR/8R2wmWbjfd1ScBlqEH/VVKEEbyK6FiAFzo9CNk7Dzn/
uFVR6Xfbc9J4wBgfyYt78xtxvJ3/1x4l2GUkCcM6Tcx0rvp63YRUnMaUDdCVkjKB
C1PAaRWYLhGyhX0FpF8+voHo2I+ZcOsoW/mibYv5V1USZFr8iD/HNy83RHAkp0gt
4eiCdp8TazkmqaKtbrBfoC9orv5Xbo/HUoxohe/6SqNnPIL5zQR72ul85Z7iW5xP
TpQ=
-----END CERTIFICATE-----
