Certificate:
    Data:
        Version: 3 (0x2)
        Serial Number: 7 (0x7)
        Signature Algorithm: sha1WithRSAEncryption
        Issuer: C=BA, ST=RS, L=Banja Luka, O=ETF, OU=ETF_CA, CN=ETF_CA/emailAddress=ETF_CA@GMAIL.COM
        Validity
            Not Before: Feb  9 14:02:46 2023 GMT
            Not After : Aug  8 14:02:46 2023 GMT
        Subject: C=BH, ST=RS, O=ETF, OU=ETF_GARAZA, CN=aleksandar/emailAddress=sasa@gmail.com
        Subject Public Key Info:
            Public Key Algorithm: rsaEncryption
                Public-Key: (8192 bit)
                Modulus:
                    00:9d:23:a4:42:da:c7:49:99:33:86:41:27:ba:45:
                    06:b5:13:d1:4d:d1:be:42:c6:d7:a3:ce:2e:05:36:
                    d0:f0:17:20:64:59:14:35:f3:eb:a5:f4:fd:0a:5f:
                    a4:6c:cd:af:53:87:08:3d:ce:32:b4:a2:d2:64:84:
                    0f:20:2f:24:5d:5a:6a:cf:24:29:8a:79:7d:39:fc:
                    0d:bc:5c:22:53:61:f6:b3:6d:4b:e7:12:d5:bf:36:
                    c3:a3:26:16:4e:7e:3f:76:0a:f0:5e:60:a5:dc:e0:
                    b4:7f:11:d5:f4:3a:17:e7:10:2f:1f:1c:7f:1a:3d:
                    8b:a9:3f:4d:4b:59:42:1c:2b:09:b6:a9:fb:9d:3d:
                    2a:ee:96:56:b0:ad:13:b9:b4:63:aa:5a:e6:42:7a:
                    6b:73:ac:e3:fb:db:21:1d:8b:1d:d7:b3:0f:83:2f:
                    31:21:86:bc:9d:29:fc:36:f4:c6:7c:a8:48:97:5f:
                    59:47:09:96:cf:42:ca:34:2a:f8:fe:a0:bc:ea:25:
                    ba:ff:3e:66:37:0b:23:21:e4:42:6e:88:b6:1b:78:
                    4a:5c:20:f1:69:d1:48:2b:ca:85:93:e0:6d:8a:f8:
                    b8:ae:85:65:ff:eb:6b:06:55:5f:e7:ad:95:89:22:
                    b6:3e:c6:bd:b9:4b:cb:78:0a:b2:07:22:43:4d:be:
                    c1:8f:eb:2f:b8:f4:a8:ac:ec:48:f9:c4:a2:b9:63:
                    3a:df:e3:a4:6e:e1:56:c8:55:7d:f6:ea:21:72:09:
                    f7:84:a3:77:2a:0d:ad:f4:13:6b:01:49:a3:1e:b0:
                    b5:3b:84:ef:79:51:6a:a8:e7:ba:ab:e2:ab:4a:62:
                    1a:1e:f2:90:6f:1d:d9:5b:97:73:cd:59:d9:40:d0:
                    82:74:f0:9a:f7:05:28:27:1b:b3:c3:ac:e6:51:bf:
                    19:c4:6a:0a:3e:e5:65:d6:00:22:67:31:29:d7:d7:
                    29:8f:a4:52:0a:43:c3:58:68:c4:e1:5a:0b:76:60:
                    39:bd:5e:ef:be:16:03:61:a3:d8:ea:eb:aa:3f:16:
                    3d:da:ef:1a:19:13:25:3e:b1:ba:87:2e:0e:b5:c8:
                    45:d2:b3:78:e5:fd:8e:ac:86:80:60:9e:57:61:55:
                    c0:b2:ec:57:5a:6f:91:33:6c:74:00:2a:3f:94:b4:
                    49:06:ca:6f:bf:41:d0:32:7f:8a:69:27:56:76:c0:
                    42:d7:e8:e2:aa:a7:10:0a:57:98:68:0f:ea:a6:3e:
                    01:50:a5:10:a1:12:38:30:49:49:6c:cc:1b:04:08:
                    37:be:ad:34:10:20:63:22:95:a2:1a:2e:4f:87:e9:
                    43:1c:f9:80:8d:0d:1c:51:5b:22:a5:dc:f9:39:84:
                    32:af:fb:b6:9b:51:3d:ae:86:43:b5:4f:ee:d0:dd:
                    dc:06:3d:f0:bf:5b:7c:bc:8d:70:8b:85:61:4d:d4:
                    7c:05:f8:3c:a2:90:11:f7:5d:34:4f:76:09:b0:c1:
                    24:64:99:f4:d4:03:57:f9:12:f1:fe:1e:f9:ec:36:
                    e3:5e:66:f5:6c:98:fe:2a:e6:c9:f7:ec:f8:84:1b:
                    86:46:6c:b8:75:b2:33:8d:3a:8f:b3:3c:f3:3d:4f:
                    50:b6:93:b4:8c:7c:9e:13:9f:d9:ba:0c:92:13:42:
                    44:80:5a:40:c3:c4:92:eb:85:9e:ba:e9:9a:d7:6f:
                    27:36:da:3a:14:38:66:12:db:b6:2e:20:d2:f6:d2:
                    dd:08:83:a4:87:49:c1:dd:23:97:b7:51:91:b4:ae:
                    3c:93:a6:4f:c9:3f:4e:5c:b3:e9:2f:e0:bd:68:3b:
                    fc:57:9c:89:7a:fe:4c:9d:07:0d:b5:35:ca:ac:4f:
                    e4:61:3b:75:04:66:5a:1b:71:0c:3a:aa:bf:9c:c5:
                    9b:9f:5d:8b:0e:d1:00:eb:5d:18:48:df:4c:6e:32:
                    ab:87:d8:fa:ab:af:84:4d:a4:dd:c3:10:84:88:85:
                    52:39:e2:24:d8:11:27:e9:d9:b8:47:e4:f2:de:6f:
                    4a:47:ba:7c:45:3f:28:44:c7:69:a6:09:d4:f6:83:
                    0a:e8:60:3f:d3:70:03:7f:d3:0c:32:53:fa:db:7b:
                    75:a2:0d:0b:16:b5:eb:2a:0e:90:ff:25:12:c9:d7:
                    b5:52:bf:f0:22:bc:8d:31:49:d6:88:fe:c6:14:32:
                    a3:be:6f:a8:76:ce:7a:8a:7a:38:fc:c0:3c:47:fe:
                    4f:77:4d:25:61:12:ee:e8:57:02:d6:b1:62:40:1f:
                    f4:60:98:88:2a:23:9b:65:15:42:ad:c6:ea:0d:11:
                    f7:5c:dc:50:21:6d:42:93:d5:62:3b:e4:67:62:f7:
                    f4:98:92:b7:f5:d8:c0:06:56:aa:32:e7:11:82:34:
                    59:e2:08:76:bf:92:c0:1a:bf:66:a5:f0:d5:26:cf:
                    58:3d:55:a6:83:fb:be:4b:40:28:aa:92:28:b9:f8:
                    0c:00:d4:89:87:9c:0d:93:06:6b:40:5e:7a:b9:7e:
                    1f:ec:45:e1:8c:a4:27:1b:fb:f5:27:95:8e:d4:53:
                    2e:dd:dd:dd:e2:60:9c:14:b2:b6:6a:18:51:83:16:
                    1c:f5:9e:7f:b6:af:79:f6:23:05:83:79:14:3b:a6:
                    de:ef:38:fa:70:48:95:d7:14:ab:1e:ae:9a:6c:2d:
                    e0:a0:23:65:d0:27:ed:f6:91:25:03:63:e4:43:32:
                    b3:69:49:51:d9:4b:28:bd:b8:d7:a0:a9:ca:61:37:
                    6a:b0:ee:43:25
                Exponent: 65537 (0x10001)
        X509v3 extensions:
            X509v3 Basic Constraints: 
                CA:FALSE
            X509v3 Key Usage: 
                Digital Signature, Data Encipherment
            X509v3 Extended Key Usage: 
                TLS Web Client Authentication
            Netscape Comment: 
                OpenSSL Generated Certificate
            X509v3 Subject Key Identifier: 
                68:50:5D:C2:0B:E0:78:9F:DF:1A:79:D3:16:0A:DC:CD:0C:FB:0E:F1
            X509v3 Authority Key Identifier: 
                DE:69:C1:62:2F:64:31:7C:50:29:B9:79:35:59:C6:A6:95:E8:02:87
            X509v3 CRL Distribution Points: 
                Full Name:
                  URI:http://192.168.21.89/rootcrl.pem
    Signature Algorithm: sha1WithRSAEncryption
    Signature Value:
        22:9e:1e:6c:e0:76:de:a7:d2:b2:7b:90:a2:df:2d:ce:61:c7:
        7e:21:f8:27:75:75:c3:cb:3a:b2:14:08:02:1d:cb:37:6a:d4:
        90:0d:68:3b:62:df:b0:1b:6e:51:6f:64:d3:e4:be:b4:1c:17:
        09:8c:ef:e2:65:93:80:97:a2:ef:d0:f7:46:5a:c4:d3:2a:6f:
        af:a9:65:47:71:f9:97:d9:9d:b1:46:bc:21:bc:40:0c:75:44:
        21:53:f6:e3:bb:83:4c:82:bf:30:0c:71:e0:74:14:ce:c5:6a:
        7d:57:ed:a6:96:2f:79:12:50:6d:a0:c4:90:a4:ea:a3:fb:45:
        97:5b:3d:3a:4d:05:e3:44:d9:2b:0f:9f:10:dc:5c:67:48:d4:
        7e:01:80:e0:6e:76:42:db:59:14:7f:68:e8:08:ed:24:72:19:
        93:11:bd:c5:cd:54:ef:ca:79:9a:2a:39:59:52:6d:2b:a1:93:
        bc:a7:48:9b:bb:43:6a:51:b9:50:27:4a:f7:23:01:eb:a0:ef:
        55:ed:e3:23:86:71:f5:3e:d0:2b:fc:6e:e5:6f:71:96:ac:e8:
        62:9c:1e:0a:b6:71:ea:28:dc:e6:11:79:24:53:a7:9f:b9:6c:
        34:84:5c:1d:e1:2f:39:dc:2c:5a:cc:c0:6b:2d:db:02:e5:2f:
        70:59:a3:2c:98:7b:b7:5b:f8:fb:92:da:cd:0c:71:f5:84:e2:
        da:44:80:2d:63:72:84:e6:41:03:34:ce:20:ca:3d:49:7c:a0:
        4a:a2:73:70:3b:e5:2d:ad:a1:49:8f:aa:43:ce:b3:d8:72:b6:
        00:49:6e:fe:fe:3e:9e:a0:a4:73:59:3a:5b:a4:67:16:ca:46:
        bf:c5:8f:ce:0c:ca:14:7e:07:45:fd:dc:f1:a8:b7:da:ba:f1:
        6a:6b:78:b3:a6:c8:ec:0d:fe:56:05:2b:d4:c2:d5:d4:ba:b9:
        07:63:14:1c:61:c3:10:44:f9:d1:85:f9:9f:f0:d1:41:52:34:
        61:c4:b8:0d:d0:2e:ed:3c:58:b7:e6:ff:6a:69:f9:3a:a1:6c:
        2c:a2:4e:e5:d7:5f:a1:8f:a7:37:5a:26:74:f9:5d:d8:76:76:
        88:18:e5:7b:b9:96:aa:34:a3:37:8d:3d:0e:08:e4:ca:f2:ab:
        3e:13:f0:b0:d1:73:47:66:de:11:26:c3:4a:21:c3:3c:a4:ef:
        20:35:48:9c:cc:24:e8:a9:5b:30:b2:d2:c4:37:49:1d:01:cd:
        f3:7c:04:bf:6a:e0:97:0f:e2:35:d3:13:f0:ec:15:74:83:aa:
        f0:56:52:dc:06:e3:3e:69:58:a5:93:c9:05:cc:0d:a0:5d:37:
        26:70:95:b0:03:95:ad:97
-----BEGIN CERTIFICATE-----
MIIIPzCCBiegAwIBAgIBBzANBgkqhkiG9w0BAQUFADCBgDELMAkGA1UEBhMCQkEx
CzAJBgNVBAgTAlJTMRMwEQYDVQQHEwpCYW5qYSBMdWthMQwwCgYDVQQKEwNFVEYx
DzANBgNVBAsUBkVURl9DQTEPMA0GA1UEAxQGRVRGX0NBMR8wHQYJKoZIhvcNAQkB
FhBFVEZfQ0FAR01BSUwuQ09NMB4XDTIzMDIwOTE0MDI0NloXDTIzMDgwODE0MDI0
NlowcTELMAkGA1UEBhMCQkgxCzAJBgNVBAgTAlJTMQwwCgYDVQQKEwNFVEYxEzAR
BgNVBAsUCkVURl9HQVJBWkExEzARBgNVBAMTCmFsZWtzYW5kYXIxHTAbBgkqhkiG
9w0BCQEWDnNhc2FAZ21haWwuY29tMIIEIjANBgkqhkiG9w0BAQEFAAOCBA8AMIIE
CgKCBAEAnSOkQtrHSZkzhkEnukUGtRPRTdG+QsbXo84uBTbQ8BcgZFkUNfPrpfT9
Cl+kbM2vU4cIPc4ytKLSZIQPIC8kXVpqzyQpinl9OfwNvFwiU2H2s21L5xLVvzbD
oyYWTn4/dgrwXmCl3OC0fxHV9DoX5xAvHxx/Gj2LqT9NS1lCHCsJtqn7nT0q7pZW
sK0TubRjqlrmQnprc6zj+9shHYsd17MPgy8xIYa8nSn8NvTGfKhIl19ZRwmWz0LK
NCr4/qC86iW6/z5mNwsjIeRCboi2G3hKXCDxadFIK8qFk+Btivi4roVl/+trBlVf
562ViSK2Psa9uUvLeAqyByJDTb7Bj+svuPSorOxI+cSiuWM63+OkbuFWyFV99uoh
cgn3hKN3Kg2t9BNrAUmjHrC1O4TveVFqqOe6q+KrSmIaHvKQbx3ZW5dzzVnZQNCC
dPCa9wUoJxuzw6zmUb8ZxGoKPuVl1gAiZzEp19cpj6RSCkPDWGjE4VoLdmA5vV7v
vhYDYaPY6uuqPxY92u8aGRMlPrG6hy4OtchF0rN45f2OrIaAYJ5XYVXAsuxXWm+R
M2x0ACo/lLRJBspvv0HQMn+KaSdWdsBC1+jiqqcQCleYaA/qpj4BUKUQoRI4MElJ
bMwbBAg3vq00ECBjIpWiGi5Ph+lDHPmAjQ0cUVsipdz5OYQyr/u2m1E9roZDtU/u
0N3cBj3wv1t8vI1wi4VhTdR8Bfg8opAR9100T3YJsMEkZJn01ANX+RLx/h757Dbj
Xmb1bJj+KubJ9+z4hBuGRmy4dbIzjTqPszzzPU9QtpO0jHyeE5/ZugySE0JEgFpA
w8SS64Weuuma128nNto6FDhmEtu2LiDS9tLdCIOkh0nB3SOXt1GRtK48k6ZPyT9O
XLPpL+C9aDv8V5yJev5MnQcNtTXKrE/kYTt1BGZaG3EMOqq/nMWbn12LDtEA610Y
SN9MbjKrh9j6q6+ETaTdwxCEiIVSOeIk2BEn6dm4R+Ty3m9KR7p8RT8oRMdppgnU
9oMK6GA/03ADf9MMMlP623t1og0LFrXrKg6Q/yUSyde1Ur/wIryNMUnWiP7GFDKj
vm+ods56ino4/MA8R/5Pd00lYRLu6FcC1rFiQB/0YJiIKiObZRVCrcbqDRH3XNxQ
IW1Ck9ViO+RnYvf0mJK39djABlaqMucRgjRZ4gh2v5LAGr9mpfDVJs9YPVWmg/u+
S0AoqpIoufgMANSJh5wNkwZrQF56uX4f7EXhjKQnG/v1J5WO1FMu3d3d4mCcFLK2
ahhRgxYc9Z5/tq959iMFg3kUO6be7zj6cEiV1xSrHq6abC3goCNl0Cft9pElA2Pk
QzKzaUlR2UsovbjXoKnKYTdqsO5DJQIDAQABo4HRMIHOMAkGA1UdEwQCMAAwCwYD
VR0PBAQDAgSQMBMGA1UdJQQMMAoGCCsGAQUFBwMCMCwGCWCGSAGG+EIBDQQfFh1P
cGVuU1NMIEdlbmVyYXRlZCBDZXJ0aWZpY2F0ZTAdBgNVHQ4EFgQUaFBdwgvgeJ/f
GnnTFgrczQz7DvEwHwYDVR0jBBgwFoAU3mnBYi9kMXxQKbl5NVnGppXoAocwMQYD
VR0fBCowKDAmoCSgIoYgaHR0cDovLzE5Mi4xNjguMjEuODkvcm9vdGNybC5wZW0w
DQYJKoZIhvcNAQEFBQADggIBACKeHmzgdt6n0rJ7kKLfLc5hx34h+Cd1dcPLOrIU
CAIdyzdq1JANaDti37AbblFvZNPkvrQcFwmM7+Jlk4CXou/Q90ZaxNMqb6+pZUdx
+ZfZnbFGvCG8QAx1RCFT9uO7g0yCvzAMceB0FM7Fan1X7aaWL3kSUG2gxJCk6qP7
RZdbPTpNBeNE2SsPnxDcXGdI1H4BgOBudkLbWRR/aOgI7SRyGZMRvcXNVO/KeZoq
OVlSbSuhk7ynSJu7Q2pRuVAnSvcjAeug71Xt4yOGcfU+0Cv8buVvcZas6GKcHgq2
ceoo3OYReSRTp5+5bDSEXB3hLzncLFrMwGst2wLlL3BZoyyYe7db+PuS2s0McfWE
4tpEgC1jcoTmQQM0ziDKPUl8oEqic3A75S2toUmPqkPOs9hytgBJbv7+Pp6gpHNZ
OlukZxbKRr/Fj84MyhR+B0X93PGot9q68WpreLOmyOwN/lYFK9TC1dS6uQdjFBxh
wxBE+dGF+Z/w0UFSNGHEuA3QLu08WLfm/2pp+TqhbCyiTuXXX6GPpzdaJnT5Xdh2
dogY5Xu5lqo0ozeNPQ4I5Mryqz4T8LDRc0dm3hEmw0ohwzyk7yA1SJzMJOipWzCy
0sQ3SR0BzfN8BL9q4JcP4jXTE/DsFXSDqvBWUtwG4z5pWKWTyQXMDaBdNyZwlbAD
la2X
-----END CERTIFICATE-----
