Certificate:
    Data:
        Version: 3 (0x2)
        Serial Number: 5 (0x5)
        Signature Algorithm: sha1WithRSAEncryption
        Issuer: C=BA, ST=RS, L=Banja Luka, O=ETF, OU=ETF_CA, CN=ETF_CA/emailAddress=ETF_CA@GMAIL.COM
        Validity
            Not Before: Feb  8 21:53:25 2023 GMT
            Not After : Aug  7 21:53:25 2023 GMT
        Subject: C=BH, ST=RS, O=ETF, OU=ETF_STUDENT, CN=nemanja/emailAddress=student@gmail.com
        Subject Public Key Info:
            Public Key Algorithm: rsaEncryption
                Public-Key: (8192 bit)
                Modulus:
                    00:9d:23:a4:42:da:c7:49:99:33:86:41:27:ba:45:
                    06:b5:13:d1:4d:d1:be:42:c6:d7:a3:ce:2e:05:36:
                    d0:f0:17:20:64:59:14:35:f3:eb:a5:f4:fd:0a:5f:
                    a4:6c:cd:af:53:87:08:3d:ce:32:b4:a2:d2:64:84:
                    0f:20:2f:24:5d:5a:6a:cf:24:29:8a:79:7d:39:fc:
                    0d:bc:5c:22:53:61:f6:b3:6d:4b:e7:12:d5:bf:36:
                    c3:a3:26:16:4e:7e:3f:76:0a:f0:5e:60:a5:dc:e0:
                    b4:7f:11:d5:f4:3a:17:e7:10:2f:1f:1c:7f:1a:3d:
                    8b:a9:3f:4d:4b:59:42:1c:2b:09:b6:a9:fb:9d:3d:
                    2a:ee:96:56:b0:ad:13:b9:b4:63:aa:5a:e6:42:7a:
                    6b:73:ac:e3:fb:db:21:1d:8b:1d:d7:b3:0f:83:2f:
                    31:21:86:bc:9d:29:fc:36:f4:c6:7c:a8:48:97:5f:
                    59:47:09:96:cf:42:ca:34:2a:f8:fe:a0:bc:ea:25:
                    ba:ff:3e:66:37:0b:23:21:e4:42:6e:88:b6:1b:78:
                    4a:5c:20:f1:69:d1:48:2b:ca:85:93:e0:6d:8a:f8:
                    b8:ae:85:65:ff:eb:6b:06:55:5f:e7:ad:95:89:22:
                    b6:3e:c6:bd:b9:4b:cb:78:0a:b2:07:22:43:4d:be:
                    c1:8f:eb:2f:b8:f4:a8:ac:ec:48:f9:c4:a2:b9:63:
                    3a:df:e3:a4:6e:e1:56:c8:55:7d:f6:ea:21:72:09:
                    f7:84:a3:77:2a:0d:ad:f4:13:6b:01:49:a3:1e:b0:
                    b5:3b:84:ef:79:51:6a:a8:e7:ba:ab:e2:ab:4a:62:
                    1a:1e:f2:90:6f:1d:d9:5b:97:73:cd:59:d9:40:d0:
                    82:74:f0:9a:f7:05:28:27:1b:b3:c3:ac:e6:51:bf:
                    19:c4:6a:0a:3e:e5:65:d6:00:22:67:31:29:d7:d7:
                    29:8f:a4:52:0a:43:c3:58:68:c4:e1:5a:0b:76:60:
                    39:bd:5e:ef:be:16:03:61:a3:d8:ea:eb:aa:3f:16:
                    3d:da:ef:1a:19:13:25:3e:b1:ba:87:2e:0e:b5:c8:
                    45:d2:b3:78:e5:fd:8e:ac:86:80:60:9e:57:61:55:
                    c0:b2:ec:57:5a:6f:91:33:6c:74:00:2a:3f:94:b4:
                    49:06:ca:6f:bf:41:d0:32:7f:8a:69:27:56:76:c0:
                    42:d7:e8:e2:aa:a7:10:0a:57:98:68:0f:ea:a6:3e:
                    01:50:a5:10:a1:12:38:30:49:49:6c:cc:1b:04:08:
                    37:be:ad:34:10:20:63:22:95:a2:1a:2e:4f:87:e9:
                    43:1c:f9:80:8d:0d:1c:51:5b:22:a5:dc:f9:39:84:
                    32:af:fb:b6:9b:51:3d:ae:86:43:b5:4f:ee:d0:dd:
                    dc:06:3d:f0:bf:5b:7c:bc:8d:70:8b:85:61:4d:d4:
                    7c:05:f8:3c:a2:90:11:f7:5d:34:4f:76:09:b0:c1:
                    24:64:99:f4:d4:03:57:f9:12:f1:fe:1e:f9:ec:36:
                    e3:5e:66:f5:6c:98:fe:2a:e6:c9:f7:ec:f8:84:1b:
                    86:46:6c:b8:75:b2:33:8d:3a:8f:b3:3c:f3:3d:4f:
                    50:b6:93:b4:8c:7c:9e:13:9f:d9:ba:0c:92:13:42:
                    44:80:5a:40:c3:c4:92:eb:85:9e:ba:e9:9a:d7:6f:
                    27:36:da:3a:14:38:66:12:db:b6:2e:20:d2:f6:d2:
                    dd:08:83:a4:87:49:c1:dd:23:97:b7:51:91:b4:ae:
                    3c:93:a6:4f:c9:3f:4e:5c:b3:e9:2f:e0:bd:68:3b:
                    fc:57:9c:89:7a:fe:4c:9d:07:0d:b5:35:ca:ac:4f:
                    e4:61:3b:75:04:66:5a:1b:71:0c:3a:aa:bf:9c:c5:
                    9b:9f:5d:8b:0e:d1:00:eb:5d:18:48:df:4c:6e:32:
                    ab:87:d8:fa:ab:af:84:4d:a4:dd:c3:10:84:88:85:
                    52:39:e2:24:d8:11:27:e9:d9:b8:47:e4:f2:de:6f:
                    4a:47:ba:7c:45:3f:28:44:c7:69:a6:09:d4:f6:83:
                    0a:e8:60:3f:d3:70:03:7f:d3:0c:32:53:fa:db:7b:
                    75:a2:0d:0b:16:b5:eb:2a:0e:90:ff:25:12:c9:d7:
                    b5:52:bf:f0:22:bc:8d:31:49:d6:88:fe:c6:14:32:
                    a3:be:6f:a8:76:ce:7a:8a:7a:38:fc:c0:3c:47:fe:
                    4f:77:4d:25:61:12:ee:e8:57:02:d6:b1:62:40:1f:
                    f4:60:98:88:2a:23:9b:65:15:42:ad:c6:ea:0d:11:
                    f7:5c:dc:50:21:6d:42:93:d5:62:3b:e4:67:62:f7:
                    f4:98:92:b7:f5:d8:c0:06:56:aa:32:e7:11:82:34:
                    59:e2:08:76:bf:92:c0:1a:bf:66:a5:f0:d5:26:cf:
                    58:3d:55:a6:83:fb:be:4b:40:28:aa:92:28:b9:f8:
                    0c:00:d4:89:87:9c:0d:93:06:6b:40:5e:7a:b9:7e:
                    1f:ec:45:e1:8c:a4:27:1b:fb:f5:27:95:8e:d4:53:
                    2e:dd:dd:dd:e2:60:9c:14:b2:b6:6a:18:51:83:16:
                    1c:f5:9e:7f:b6:af:79:f6:23:05:83:79:14:3b:a6:
                    de:ef:38:fa:70:48:95:d7:14:ab:1e:ae:9a:6c:2d:
                    e0:a0:23:65:d0:27:ed:f6:91:25:03:63:e4:43:32:
                    b3:69:49:51:d9:4b:28:bd:b8:d7:a0:a9:ca:61:37:
                    6a:b0:ee:43:25
                Exponent: 65537 (0x10001)
        X509v3 extensions:
            X509v3 Basic Constraints: 
                CA:FALSE
            X509v3 Key Usage: 
                Digital Signature, Data Encipherment
            X509v3 Extended Key Usage: 
                TLS Web Client Authentication
            Netscape Comment: 
                OpenSSL Generated Certificate
            X509v3 Subject Key Identifier: 
                68:50:5D:C2:0B:E0:78:9F:DF:1A:79:D3:16:0A:DC:CD:0C:FB:0E:F1
            X509v3 Authority Key Identifier: 
                DE:69:C1:62:2F:64:31:7C:50:29:B9:79:35:59:C6:A6:95:E8:02:87
            X509v3 CRL Distribution Points: 
                Full Name:
                  URI:http://192.168.21.89/rootcrl.pem
    Signature Algorithm: sha1WithRSAEncryption
    Signature Value:
        0c:99:45:84:e8:55:09:d6:7a:39:49:91:77:e1:bf:7d:f6:cf:
        87:88:3d:15:8f:20:20:8a:54:0f:ca:2f:c2:38:24:b3:47:bd:
        0e:a2:ef:1d:6b:f4:ec:43:b9:4a:4b:30:a8:70:82:8a:dc:1f:
        bf:5f:af:c6:0c:75:af:59:50:0a:6f:bc:c3:1e:d5:57:e0:ff:
        d8:9b:6a:d7:b3:46:05:89:ad:cb:04:73:1f:f2:31:c8:99:c2:
        f3:83:5b:17:a3:67:82:5c:37:af:3b:a7:e2:14:d1:bd:7e:90:
        d5:d5:e0:da:66:5f:8f:f5:ad:65:2b:48:07:7a:f0:20:c3:43:
        32:c9:ba:46:8e:ca:6a:13:29:46:a0:46:de:61:89:1d:26:53:
        32:38:0e:33:43:bb:11:a0:7b:52:6b:1b:20:88:89:85:4a:70:
        d5:fb:54:ce:41:a3:c1:23:5d:8d:ff:25:69:9c:9f:d4:f6:61:
        ed:95:8e:d1:be:60:be:ce:7f:35:8a:de:31:5a:7e:a0:c5:bd:
        91:20:2e:a6:df:ae:4a:8d:af:9c:8f:09:be:7e:e1:b0:8c:aa:
        d1:80:45:72:44:8f:6e:d0:05:8c:ae:19:a7:07:56:21:a9:a3:
        ba:56:25:bd:e9:56:f0:0c:1e:b1:07:47:71:44:62:6e:d6:8f:
        8e:6a:67:e6:0d:eb:3e:95:99:0f:af:d4:78:0e:25:e3:04:fd:
        45:04:73:62:bc:be:ca:fa:ea:c4:15:29:4d:9e:82:21:81:a0:
        43:be:67:c9:f9:c5:92:45:12:18:8c:66:79:6c:d1:39:86:97:
        4e:97:b6:cb:68:80:39:53:00:ad:7b:bf:56:3d:3c:ac:e9:ff:
        0e:22:0e:07:42:4e:9e:e0:56:40:a1:d5:e7:0f:b5:70:a7:5b:
        ff:9c:86:bf:69:55:a9:a4:7f:88:15:4c:8a:db:3b:e2:c7:15:
        4d:81:02:1a:a4:91:27:6e:39:a1:8e:92:78:4c:3e:82:9f:79:
        ea:91:c2:c1:88:db:cd:f6:c4:f3:48:d5:5c:05:7b:f0:a7:cd:
        aa:5b:57:95:d3:b2:83:19:06:b4:3c:27:03:83:ec:48:3d:45:
        7b:28:61:e0:ac:2e:08:9b:d7:59:2d:09:29:29:d3:bc:ea:19:
        84:d5:93:21:83:fa:9c:fd:35:57:ff:cd:24:70:e1:44:ae:e2:
        4e:6f:86:0a:13:ce:6b:ec:db:07:24:6c:e2:21:a4:d2:99:fd:
        e7:f0:0a:fe:cb:ac:97:13:ee:25:04:0a:c7:88:24:1e:6c:40:
        79:59:ce:59:81:77:fd:38:aa:73:13:c6:27:02:62:3e:62:be:
        65:14:9d:65:44:1c:b6:60
-----BEGIN CERTIFICATE-----
MIIIQDCCBiigAwIBAgIBBTANBgkqhkiG9w0BAQUFADCBgDELMAkGA1UEBhMCQkEx
CzAJBgNVBAgTAlJTMRMwEQYDVQQHEwpCYW5qYSBMdWthMQwwCgYDVQQKEwNFVEYx
DzANBgNVBAsUBkVURl9DQTEPMA0GA1UEAxQGRVRGX0NBMR8wHQYJKoZIhvcNAQkB
FhBFVEZfQ0FAR01BSUwuQ09NMB4XDTIzMDIwODIxNTMyNVoXDTIzMDgwNzIxNTMy
NVowcjELMAkGA1UEBhMCQkgxCzAJBgNVBAgTAlJTMQwwCgYDVQQKEwNFVEYxFDAS
BgNVBAsUC0VURl9TVFVERU5UMRAwDgYDVQQDEwduZW1hbmphMSAwHgYJKoZIhvcN
AQkBFhFzdHVkZW50QGdtYWlsLmNvbTCCBCIwDQYJKoZIhvcNAQEBBQADggQPADCC
BAoCggQBAJ0jpELax0mZM4ZBJ7pFBrUT0U3RvkLG16POLgU20PAXIGRZFDXz66X0
/QpfpGzNr1OHCD3OMrSi0mSEDyAvJF1aas8kKYp5fTn8DbxcIlNh9rNtS+cS1b82
w6MmFk5+P3YK8F5gpdzgtH8R1fQ6F+cQLx8cfxo9i6k/TUtZQhwrCbap+509Ku6W
VrCtE7m0Y6pa5kJ6a3Os4/vbIR2LHdezD4MvMSGGvJ0p/Db0xnyoSJdfWUcJls9C
yjQq+P6gvOoluv8+ZjcLIyHkQm6Itht4Slwg8WnRSCvKhZPgbYr4uK6FZf/rawZV
X+etlYkitj7GvblLy3gKsgciQ02+wY/rL7j0qKzsSPnEorljOt/jpG7hVshVffbq
IXIJ94SjdyoNrfQTawFJox6wtTuE73lRaqjnuqviq0piGh7ykG8d2VuXc81Z2UDQ
gnTwmvcFKCcbs8Os5lG/GcRqCj7lZdYAImcxKdfXKY+kUgpDw1hoxOFaC3ZgOb1e
774WA2Gj2Orrqj8WPdrvGhkTJT6xuocuDrXIRdKzeOX9jqyGgGCeV2FVwLLsV1pv
kTNsdAAqP5S0SQbKb79B0DJ/imknVnbAQtfo4qqnEApXmGgP6qY+AVClEKESODBJ
SWzMGwQIN76tNBAgYyKVohouT4fpQxz5gI0NHFFbIqXc+TmEMq/7tptRPa6GQ7VP
7tDd3AY98L9bfLyNcIuFYU3UfAX4PKKQEfddNE92CbDBJGSZ9NQDV/kS8f4e+ew2
415m9WyY/irmyffs+IQbhkZsuHWyM406j7M88z1PULaTtIx8nhOf2boMkhNCRIBa
QMPEkuuFnrrpmtdvJzbaOhQ4ZhLbti4g0vbS3QiDpIdJwd0jl7dRkbSuPJOmT8k/
Tlyz6S/gvWg7/FeciXr+TJ0HDbU1yqxP5GE7dQRmWhtxDDqqv5zFm59diw7RAOtd
GEjfTG4yq4fY+quvhE2k3cMQhIiFUjniJNgRJ+nZuEfk8t5vSke6fEU/KETHaaYJ
1PaDCuhgP9NwA3/TDDJT+tt7daINCxa16yoOkP8lEsnXtVK/8CK8jTFJ1oj+xhQy
o75vqHbOeop6OPzAPEf+T3dNJWES7uhXAtaxYkAf9GCYiCojm2UVQq3G6g0R91zc
UCFtQpPVYjvkZ2L39JiSt/XYwAZWqjLnEYI0WeIIdr+SwBq/ZqXw1SbPWD1VpoP7
vktAKKqSKLn4DADUiYecDZMGa0Beerl+H+xF4YykJxv79SeVjtRTLt3d3eJgnBSy
tmoYUYMWHPWef7avefYjBYN5FDum3u84+nBIldcUqx6ummwt4KAjZdAn7faRJQNj
5EMys2lJUdlLKL2416CpymE3arDuQyUCAwEAAaOB0TCBzjAJBgNVHRMEAjAAMAsG
A1UdDwQEAwIEkDATBgNVHSUEDDAKBggrBgEFBQcDAjAsBglghkgBhvhCAQ0EHxYd
T3BlblNTTCBHZW5lcmF0ZWQgQ2VydGlmaWNhdGUwHQYDVR0OBBYEFGhQXcIL4Hif
3xp50xYK3M0M+w7xMB8GA1UdIwQYMBaAFN5pwWIvZDF8UCm5eTVZxqaV6AKHMDEG
A1UdHwQqMCgwJqAkoCKGIGh0dHA6Ly8xOTIuMTY4LjIxLjg5L3Jvb3RjcmwucGVt
MA0GCSqGSIb3DQEBBQUAA4ICAQAMmUWE6FUJ1no5SZF34b999s+HiD0VjyAgilQP
yi/COCSzR70Oou8da/TsQ7lKSzCocIKK3B+/X6/GDHWvWVAKb7zDHtVX4P/Ym2rX
s0YFia3LBHMf8jHImcLzg1sXo2eCXDevO6fiFNG9fpDV1eDaZl+P9a1lK0gHevAg
w0MyybpGjspqEylGoEbeYYkdJlMyOA4zQ7sRoHtSaxsgiImFSnDV+1TOQaPBI12N
/yVpnJ/U9mHtlY7RvmC+zn81it4xWn6gxb2RIC6m365Kja+cjwm+fuGwjKrRgEVy
RI9u0AWMrhmnB1YhqaO6ViW96VbwDB6xB0dxRGJu1o+OamfmDes+lZkPr9R4DiXj
BP1FBHNivL7K+urEFSlNnoIhgaBDvmfJ+cWSRRIYjGZ5bNE5hpdOl7bLaIA5UwCt
e79WPTys6f8OIg4HQk6e4FZAodXnD7Vwp1v/nIa/aVWppH+IFUyK2zvixxVNgQIa
pJEnbjmhjpJ4TD6Cn3nqkcLBiNvN9sTzSNVcBXvwp82qW1eV07KDGQa0PCcDg+xI
PUV7KGHgrC4Im9dZLQkpKdO86hmE1ZMhg/qc/TVX/80kcOFEruJOb4YKE85r7NsH
JGziIaTSmf3n8Ar+y6yXE+4lBArHiCQebEB5Wc5ZgXf9OKpzE8YnAmI+Yr5lFJ1l
RBy2YA==
-----END CERTIFICATE-----
