Certificate:
    Data:
        Version: 3 (0x2)
        Serial Number: 1 (0x1)
        Signature Algorithm: sha1WithRSAEncryption
        Issuer: C=BA, ST=RS, L=Banja Luka, O=ETF, OU=ETF_CA, CN=ETF_CA/emailAddress=ETF_CA@GMAIL.COM
        Validity
            Not Before: Jan 21 22:43:15 2023 GMT
            Not After : Jul 20 22:43:15 2023 GMT
        Subject: C=or, ST=a, O=ETF, OU=d, CN=usr2/emailAddress=e
        Subject Public Key Info:
            Public Key Algorithm: rsaEncryption
                Public-Key: (2048 bit)
                Modulus:
                    00:ba:82:b5:3d:eb:05:85:04:31:15:17:44:29:a7:
                    7d:77:b5:43:c9:ea:ed:6f:62:9b:09:41:22:34:e7:
                    9e:f6:0c:7d:53:3e:92:f5:79:c4:78:18:6d:89:07:
                    10:3f:e0:b3:fd:f6:69:0d:5d:af:f7:20:e9:fa:e4:
                    c3:35:51:bb:1e:c6:6b:bb:62:03:93:85:04:4e:61:
                    4c:61:b3:48:66:f8:65:35:03:19:31:79:44:24:ec:
                    0b:02:48:4d:ff:e2:2e:a3:b9:bd:ea:c4:be:62:d2:
                    09:82:cd:cc:a9:10:4b:0b:d9:f7:28:6e:89:3b:a1:
                    3a:1d:b6:5e:13:0d:c4:c4:45:86:ce:29:3c:5c:9b:
                    4f:77:fa:0b:d4:77:b6:88:7f:62:8f:2b:32:5c:16:
                    0d:4d:6a:a1:2f:20:02:c4:d2:09:79:b0:31:03:58:
                    81:98:cb:63:8e:73:f4:57:a3:de:94:1e:58:8d:5a:
                    21:6c:19:d1:02:6e:a8:c9:ab:f6:c8:7e:c4:da:83:
                    55:25:a5:84:7c:db:55:d2:c4:ad:6c:db:10:a0:e6:
                    a1:e5:47:99:a4:2d:4c:dc:dc:15:c3:cb:0f:fa:ef:
                    57:f6:90:f0:dc:18:59:f6:52:41:4e:c4:fd:83:d1:
                    3a:3e:bb:c6:b8:72:ee:ee:e3:33:1c:49:44:60:17:
                    43:cb
                Exponent: 65537 (0x10001)
        X509v3 extensions:
            X509v3 Basic Constraints: 
                CA:FALSE
            X509v3 Key Usage: 
                Digital Signature, Data Encipherment
            X509v3 Extended Key Usage: 
                TLS Web Client Authentication
            Netscape Comment: 
                OpenSSL Generated Certificate
            X509v3 Subject Key Identifier: 
                25:06:B0:AD:E6:0B:F6:99:46:C8:FD:46:6C:42:64:82:F3:0F:80:F0
            X509v3 Authority Key Identifier: 
                DE:69:C1:62:2F:64:31:7C:50:29:B9:79:35:59:C6:A6:95:E8:02:87
            X509v3 CRL Distribution Points: 
                Full Name:
                  URI:http://192.168.21.89/rootcrl.pem
    Signature Algorithm: sha1WithRSAEncryption
    Signature Value:
        ab:91:92:cb:66:db:e9:b0:4f:92:a1:e0:d1:7e:46:3b:90:5a:
        00:38:0d:c9:f4:df:3f:02:d3:90:eb:de:64:bf:37:33:84:b6:
        e4:83:e9:eb:c3:fa:45:4d:f1:e0:72:51:25:a0:9c:4f:6e:e9:
        74:ed:b7:8c:79:99:de:4d:95:c4:37:e5:f8:db:bd:8e:61:4d:
        f0:7d:8a:17:83:4e:9a:f4:96:57:9f:7a:2f:a2:27:e5:8c:2c:
        53:93:a0:37:84:08:b7:50:38:f9:9e:05:e2:e2:5d:f6:54:7e:
        78:7f:00:0b:34:6e:25:34:14:b3:df:7c:d8:0a:fc:fb:dd:f0:
        12:c6:bd:84:5c:36:6a:af:90:59:cd:2b:d1:d9:a9:a0:92:bc:
        21:39:76:df:ab:63:9b:d7:08:73:df:93:bf:0c:a0:3c:9a:ad:
        a5:84:a0:b3:42:80:00:10:e3:da:f0:f5:49:6e:b5:40:e1:72:
        39:4e:17:7c:23:73:dd:d4:ba:50:6d:40:78:b7:f1:be:19:e1:
        05:5d:19:2d:ff:26:85:2e:cf:37:27:6c:b4:69:52:d3:03:c6:
        cb:d9:ff:33:a8:f6:67:67:93:1a:65:d2:df:6e:0c:b1:97:e3:
        cd:6a:9c:68:4c:7e:db:5a:51:04:80:34:a7:bd:b3:b1:fe:3a:
        d4:65:7f:61:df:c9:9c:14:b8:6a:9a:9c:64:3f:99:24:81:12:
        44:ec:e9:bf:30:4e:0c:a6:5e:e7:4b:db:88:f6:70:dd:18:e8:
        78:f0:0d:72:ea:37:1c:04:2b:27:e4:e7:f9:d2:75:2f:27:26:
        57:9c:cf:94:46:e5:b8:d7:1c:5c:75:33:6f:40:9e:a2:4d:12:
        2d:7c:58:6e:8e:46:d5:a9:dd:b7:91:ec:37:82:4c:cb:a6:06:
        63:63:7d:a2:43:53:5c:61:48:8a:15:58:f6:ba:41:50:1c:fb:
        39:3a:80:3e:e7:3f:8b:7f:e1:56:23:aa:29:30:7a:b4:8a:a1:
        1e:cb:8e:0b:7c:61:3f:89:41:fd:0b:3e:c0:45:dd:19:e8:c0:
        32:73:4b:7e:fe:99:64:0e:a6:0a:7d:d0:1a:7c:6d:73:ad:0e:
        5a:0a:ce:1c:70:53:19:23:4d:f5:da:f6:ac:e4:0c:c1:7e:01:
        b1:3c:d1:78:e1:5b:a7:84:8c:81:e1:cd:6e:85:ab:ab:34:ec:
        55:19:18:fe:72:7d:4f:ce:2c:b4:b0:97:6d:97:51:3a:6a:40:
        f8:31:11:d9:8b:70:42:91:25:91:cd:b3:90:47:ab:de:1c:f8:
        02:85:87:b2:06:47:69:4b:02:8d:0d:20:a9:03:e7:18:d2:55:
        8b:29:c4:b9:26:12:fb:8b
-----BEGIN CERTIFICATE-----
MIIFIjCCAwqgAwIBAgIBATANBgkqhkiG9w0BAQUFADCBgDELMAkGA1UEBhMCQkEx
CzAJBgNVBAgTAlJTMRMwEQYDVQQHEwpCYW5qYSBMdWthMQwwCgYDVQQKEwNFVEYx
DzANBgNVBAsUBkVURl9DQTEPMA0GA1UEAxQGRVRGX0NBMR8wHQYJKoZIhvcNAQkB
FhBFVEZfQ0FAR01BSUwuQ09NMB4XDTIzMDEyMTIyNDMxNVoXDTIzMDcyMDIyNDMx
NVowVDELMAkGA1UEBhMCb3IxCjAIBgNVBAgTAWExDDAKBgNVBAoTA0VURjEKMAgG
A1UECxMBZDENMAsGA1UEAxMEdXNyMjEQMA4GCSqGSIb3DQEJARYBZTCCASIwDQYJ
KoZIhvcNAQEBBQADggEPADCCAQoCggEBALqCtT3rBYUEMRUXRCmnfXe1Q8nq7W9i
mwlBIjTnnvYMfVM+kvV5xHgYbYkHED/gs/32aQ1dr/cg6frkwzVRux7Ga7tiA5OF
BE5hTGGzSGb4ZTUDGTF5RCTsCwJITf/iLqO5verEvmLSCYLNzKkQSwvZ9yhuiTuh
Oh22XhMNxMRFhs4pPFybT3f6C9R3toh/Yo8rMlwWDU1qoS8gAsTSCXmwMQNYgZjL
Y45z9Fej3pQeWI1aIWwZ0QJuqMmr9sh+xNqDVSWlhHzbVdLErWzbEKDmoeVHmaQt
TNzcFcPLD/rvV/aQ8NwYWfZSQU7E/YPROj67xrhy7u7jMxxJRGAXQ8sCAwEAAaOB
0TCBzjAJBgNVHRMEAjAAMAsGA1UdDwQEAwIEkDATBgNVHSUEDDAKBggrBgEFBQcD
AjAsBglghkgBhvhCAQ0EHxYdT3BlblNTTCBHZW5lcmF0ZWQgQ2VydGlmaWNhdGUw
HQYDVR0OBBYEFCUGsK3mC/aZRsj9RmxCZILzD4DwMB8GA1UdIwQYMBaAFN5pwWIv
ZDF8UCm5eTVZxqaV6AKHMDEGA1UdHwQqMCgwJqAkoCKGIGh0dHA6Ly8xOTIuMTY4
LjIxLjg5L3Jvb3RjcmwucGVtMA0GCSqGSIb3DQEBBQUAA4ICAQCrkZLLZtvpsE+S
oeDRfkY7kFoAOA3J9N8/AtOQ695kvzczhLbkg+nrw/pFTfHgclEloJxPbul07beM
eZneTZXEN+X4272OYU3wfYoXg06a9JZXn3ovoifljCxTk6A3hAi3UDj5ngXi4l32
VH54fwALNG4lNBSz33zYCvz73fASxr2EXDZqr5BZzSvR2amgkrwhOXbfq2Ob1whz
35O/DKA8mq2lhKCzQoAAEOPa8PVJbrVA4XI5Thd8I3Pd1LpQbUB4t/G+GeEFXRkt
/yaFLs83J2y0aVLTA8bL2f8zqPZnZ5MaZdLfbgyxl+PNapxoTH7bWlEEgDSnvbOx
/jrUZX9h38mcFLhqmpxkP5kkgRJE7Om/ME4Mpl7nS9uI9nDdGOh48A1y6jccBCsn
5Of50nUvJyZXnM+URuW41xxcdTNvQJ6iTRItfFhujkbVqd23kew3gkzLpgZjY32i
Q1NcYUiKFVj2ukFQHPs5OoA+5z+Lf+FWI6opMHq0iqEey44LfGE/iUH9Cz7ARd0Z
6MAyc0t+/plkDqYKfdAafG1zrQ5aCs4ccFMZI0312vas5AzBfgGxPNF44VunhIyB
4c1uhaurNOxVGRj+cn1Pziy0sJdtl1E6akD4MRHZi3BCkSWRzbOQR6veHPgChYey
BkdpSwKNDSCpA+cY0lWLKcS5JhL7iw==
-----END CERTIFICATE-----
