Certificate:
    Data:
        Version: 3 (0x2)
        Serial Number: 2 (0x2)
        Signature Algorithm: sha1WithRSAEncryption
        Issuer: C=BA, ST=RS, L=Banja Luka, O=ETF, OU=ETF_CA, CN=ETF_CA/emailAddress=ETF_CA@GMAIL.COM
        Validity
            Not Before: Jan 21 22:48:54 2023 GMT
            Not After : Jul 20 22:48:54 2023 GMT
        Subject: C=BH, ST=RS, O=ETF, OU=d, CN=usr3/emailAddress=e
        Subject Public Key Info:
            Public Key Algorithm: rsaEncryption
                Public-Key: (2048 bit)
                Modulus:
                    00:ba:82:b5:3d:eb:05:85:04:31:15:17:44:29:a7:
                    7d:77:b5:43:c9:ea:ed:6f:62:9b:09:41:22:34:e7:
                    9e:f6:0c:7d:53:3e:92:f5:79:c4:78:18:6d:89:07:
                    10:3f:e0:b3:fd:f6:69:0d:5d:af:f7:20:e9:fa:e4:
                    c3:35:51:bb:1e:c6:6b:bb:62:03:93:85:04:4e:61:
                    4c:61:b3:48:66:f8:65:35:03:19:31:79:44:24:ec:
                    0b:02:48:4d:ff:e2:2e:a3:b9:bd:ea:c4:be:62:d2:
                    09:82:cd:cc:a9:10:4b:0b:d9:f7:28:6e:89:3b:a1:
                    3a:1d:b6:5e:13:0d:c4:c4:45:86:ce:29:3c:5c:9b:
                    4f:77:fa:0b:d4:77:b6:88:7f:62:8f:2b:32:5c:16:
                    0d:4d:6a:a1:2f:20:02:c4:d2:09:79:b0:31:03:58:
                    81:98:cb:63:8e:73:f4:57:a3:de:94:1e:58:8d:5a:
                    21:6c:19:d1:02:6e:a8:c9:ab:f6:c8:7e:c4:da:83:
                    55:25:a5:84:7c:db:55:d2:c4:ad:6c:db:10:a0:e6:
                    a1:e5:47:99:a4:2d:4c:dc:dc:15:c3:cb:0f:fa:ef:
                    57:f6:90:f0:dc:18:59:f6:52:41:4e:c4:fd:83:d1:
                    3a:3e:bb:c6:b8:72:ee:ee:e3:33:1c:49:44:60:17:
                    43:cb
                Exponent: 65537 (0x10001)
        X509v3 extensions:
            X509v3 Basic Constraints: 
                CA:FALSE
            X509v3 Key Usage: 
                Digital Signature, Data Encipherment
            X509v3 Extended Key Usage: 
                TLS Web Client Authentication
            Netscape Comment: 
                OpenSSL Generated Certificate
            X509v3 Subject Key Identifier: 
                25:06:B0:AD:E6:0B:F6:99:46:C8:FD:46:6C:42:64:82:F3:0F:80:F0
            X509v3 Authority Key Identifier: 
                DE:69:C1:62:2F:64:31:7C:50:29:B9:79:35:59:C6:A6:95:E8:02:87
            X509v3 CRL Distribution Points: 
                Full Name:
                  URI:http://192.168.21.89/rootcrl.pem
    Signature Algorithm: sha1WithRSAEncryption
    Signature Value:
        40:54:34:dc:f0:f9:78:e9:24:0f:70:dc:91:46:6d:50:20:5d:
        0f:cd:7d:c1:b3:0e:9d:13:a8:53:c0:00:8a:0b:72:b4:24:4d:
        07:0b:93:75:fb:35:89:bc:e0:6f:11:df:1c:38:36:cf:49:10:
        a6:e3:86:07:3b:e2:89:66:86:9b:00:24:2e:77:93:c7:37:ad:
        7c:d9:2b:3d:d9:d7:b6:51:d2:0e:10:34:b1:59:25:b1:43:83:
        88:fd:dc:21:21:b1:8d:45:fb:4f:6e:c8:97:b1:81:e0:ed:6a:
        8c:b9:b5:4e:ac:db:cd:cf:7c:6a:53:c9:49:d9:9c:fc:8e:3b:
        3f:51:3b:e1:b7:36:a5:83:2e:f5:ed:62:1f:54:68:ad:92:df:
        51:11:3e:37:44:e5:4e:56:5c:99:8e:a1:6f:ef:23:5b:1a:69:
        2c:a8:82:dd:88:e5:65:c2:98:55:b8:fb:16:a5:4f:45:8f:1f:
        7d:35:5c:e3:25:64:3d:d2:e2:71:c5:89:62:6d:97:8a:ab:8d:
        94:0e:f3:ee:fc:a3:70:ae:9c:c4:52:9e:1f:8f:6a:81:30:a6:
        71:73:58:7b:1f:71:f7:9a:5e:2e:80:82:af:4f:da:b3:19:b7:
        3e:f8:ee:a6:56:21:96:89:8f:af:94:43:0d:aa:b3:2c:61:20:
        62:93:f7:5d:1d:c7:c4:f0:46:22:c2:07:fc:4b:9a:41:be:f1:
        e5:e6:cb:6a:21:48:97:83:e5:00:f4:ba:e4:5e:70:4b:22:f0:
        7a:0e:b6:b5:00:2e:d5:45:e3:3a:07:58:9d:16:bb:2a:1c:13:
        f2:35:90:c4:3b:4e:19:3b:bd:42:37:00:db:ab:e8:16:39:99:
        70:e9:74:4a:a0:0e:d0:fc:7e:09:89:c3:64:bc:86:a4:ce:76:
        9b:9a:d6:3e:09:68:da:35:98:19:9a:8d:03:95:95:3f:65:b7:
        07:0c:3f:e7:0b:6d:55:f6:9a:91:d3:c4:e3:76:db:d6:13:ac:
        d6:c6:0c:f9:78:0f:39:bd:38:d2:7b:21:5a:de:a4:b7:01:4d:
        21:aa:ac:d5:17:e9:5d:6d:f3:e4:c5:7d:55:81:31:05:d1:c1:
        c7:39:11:34:ee:2c:dc:0d:0c:4f:c6:bc:4e:ac:f4:73:8e:84:
        b8:80:4d:8b:e5:6e:ed:61:2a:42:64:b6:05:86:b5:1c:64:d9:
        8b:c9:af:2c:47:05:07:93:59:06:1f:fc:d1:e7:1e:57:dd:5d:
        02:d8:d3:30:bd:aa:5d:54:89:a1:0b:c1:a4:c2:a3:b5:7a:d2:
        11:fc:48:15:b8:18:3e:9d:62:98:e3:e9:d3:5a:b5:1d:46:bb:
        b7:5b:ea:31:ae:22:7e:64
-----BEGIN CERTIFICATE-----
MIIFIzCCAwugAwIBAgIBAjANBgkqhkiG9w0BAQUFADCBgDELMAkGA1UEBhMCQkEx
CzAJBgNVBAgTAlJTMRMwEQYDVQQHEwpCYW5qYSBMdWthMQwwCgYDVQQKEwNFVEYx
DzANBgNVBAsUBkVURl9DQTEPMA0GA1UEAxQGRVRGX0NBMR8wHQYJKoZIhvcNAQkB
FhBFVEZfQ0FAR01BSUwuQ09NMB4XDTIzMDEyMTIyNDg1NFoXDTIzMDcyMDIyNDg1
NFowVTELMAkGA1UEBhMCQkgxCzAJBgNVBAgTAlJTMQwwCgYDVQQKEwNFVEYxCjAI
BgNVBAsTAWQxDTALBgNVBAMTBHVzcjMxEDAOBgkqhkiG9w0BCQEWAWUwggEiMA0G
CSqGSIb3DQEBAQUAA4IBDwAwggEKAoIBAQC6grU96wWFBDEVF0Qpp313tUPJ6u1v
YpsJQSI05572DH1TPpL1ecR4GG2JBxA/4LP99mkNXa/3IOn65MM1Ubsexmu7YgOT
hQROYUxhs0hm+GU1AxkxeUQk7AsCSE3/4i6jub3qxL5i0gmCzcypEEsL2fcobok7
oTodtl4TDcTERYbOKTxcm093+gvUd7aIf2KPKzJcFg1NaqEvIALE0gl5sDEDWIGY
y2OOc/RXo96UHliNWiFsGdECbqjJq/bIfsTag1UlpYR821XSxK1s2xCg5qHlR5mk
LUzc3BXDyw/671f2kPDcGFn2UkFOxP2D0To+u8a4cu7u4zMcSURgF0PLAgMBAAGj
gdEwgc4wCQYDVR0TBAIwADALBgNVHQ8EBAMCBJAwEwYDVR0lBAwwCgYIKwYBBQUH
AwIwLAYJYIZIAYb4QgENBB8WHU9wZW5TU0wgR2VuZXJhdGVkIENlcnRpZmljYXRl
MB0GA1UdDgQWBBQlBrCt5gv2mUbI/UZsQmSC8w+A8DAfBgNVHSMEGDAWgBTeacFi
L2QxfFApuXk1WcamlegChzAxBgNVHR8EKjAoMCagJKAihiBodHRwOi8vMTkyLjE2
OC4yMS44OS9yb290Y3JsLnBlbTANBgkqhkiG9w0BAQUFAAOCAgEAQFQ03PD5eOkk
D3DckUZtUCBdD819wbMOnROoU8AAigtytCRNBwuTdfs1ibzgbxHfHDg2z0kQpuOG
BzviiWaGmwAkLneTxzetfNkrPdnXtlHSDhA0sVklsUODiP3cISGxjUX7T27Il7GB
4O1qjLm1Tqzbzc98alPJSdmc/I47P1E74bc2pYMu9e1iH1RorZLfURE+N0TlTlZc
mY6hb+8jWxppLKiC3YjlZcKYVbj7FqVPRY8ffTVc4yVkPdLiccWJYm2XiquNlA7z
7vyjcK6cxFKeH49qgTCmcXNYex9x95peLoCCr0/asxm3PvjuplYhlomPr5RDDaqz
LGEgYpP3XR3HxPBGIsIH/EuaQb7x5ebLaiFIl4PlAPS65F5wSyLweg62tQAu1UXj
OgdYnRa7KhwT8jWQxDtOGTu9QjcA26voFjmZcOl0SqAO0Px+CYnDZLyGpM52m5rW
Pglo2jWYGZqNA5WVP2W3Bww/5wttVfaakdPE43bb1hOs1sYM+XgPOb040nshWt6k
twFNIaqs1RfpXW3z5MV9VYExBdHBxzkRNO4s3A0MT8a8Tqz0c46EuIBNi+Vu7WEq
QmS2BYa1HGTZi8mvLEcFB5NZBh/80eceV91dAtjTML2qXVSJoQvBpMKjtXrSEfxI
FbgYPp1imOPp01q1HUa7t1vqMa4ifmQ=
-----END CERTIFICATE-----
