Certificate:
    Data:
        Version: 3 (0x2)
        Serial Number: 3 (0x3)
        Signature Algorithm: sha1WithRSAEncryption
        Issuer: C=BA, ST=RS, L=Banja Luka, O=ETF, OU=ETF_CA, CN=ETF_CA/emailAddress=ETF_CA@GMAIL.COM
        Validity
            Not Before: Jan 21 22:51:17 2023 GMT
            Not After : Jul 20 22:51:17 2023 GMT
        Subject: C=BH, ST=RS, O=ETF, OU=d, CN=usr4/emailAddress=e
        Subject Public Key Info:
            Public Key Algorithm: rsaEncryption
                Public-Key: (2048 bit)
                Modulus:
                    00:ba:82:b5:3d:eb:05:85:04:31:15:17:44:29:a7:
                    7d:77:b5:43:c9:ea:ed:6f:62:9b:09:41:22:34:e7:
                    9e:f6:0c:7d:53:3e:92:f5:79:c4:78:18:6d:89:07:
                    10:3f:e0:b3:fd:f6:69:0d:5d:af:f7:20:e9:fa:e4:
                    c3:35:51:bb:1e:c6:6b:bb:62:03:93:85:04:4e:61:
                    4c:61:b3:48:66:f8:65:35:03:19:31:79:44:24:ec:
                    0b:02:48:4d:ff:e2:2e:a3:b9:bd:ea:c4:be:62:d2:
                    09:82:cd:cc:a9:10:4b:0b:d9:f7:28:6e:89:3b:a1:
                    3a:1d:b6:5e:13:0d:c4:c4:45:86:ce:29:3c:5c:9b:
                    4f:77:fa:0b:d4:77:b6:88:7f:62:8f:2b:32:5c:16:
                    0d:4d:6a:a1:2f:20:02:c4:d2:09:79:b0:31:03:58:
                    81:98:cb:63:8e:73:f4:57:a3:de:94:1e:58:8d:5a:
                    21:6c:19:d1:02:6e:a8:c9:ab:f6:c8:7e:c4:da:83:
                    55:25:a5:84:7c:db:55:d2:c4:ad:6c:db:10:a0:e6:
                    a1:e5:47:99:a4:2d:4c:dc:dc:15:c3:cb:0f:fa:ef:
                    57:f6:90:f0:dc:18:59:f6:52:41:4e:c4:fd:83:d1:
                    3a:3e:bb:c6:b8:72:ee:ee:e3:33:1c:49:44:60:17:
                    43:cb
                Exponent: 65537 (0x10001)
        X509v3 extensions:
            X509v3 Basic Constraints: 
                CA:FALSE
            X509v3 Key Usage: 
                Digital Signature, Data Encipherment
            X509v3 Extended Key Usage: 
                TLS Web Client Authentication
            Netscape Comment: 
                OpenSSL Generated Certificate
            X509v3 Subject Key Identifier: 
                25:06:B0:AD:E6:0B:F6:99:46:C8:FD:46:6C:42:64:82:F3:0F:80:F0
            X509v3 Authority Key Identifier: 
                DE:69:C1:62:2F:64:31:7C:50:29:B9:79:35:59:C6:A6:95:E8:02:87
            X509v3 CRL Distribution Points: 
                Full Name:
                  URI:http://192.168.21.89/rootcrl.pem
    Signature Algorithm: sha1WithRSAEncryption
    Signature Value:
        03:cc:02:a8:c9:c7:23:76:0c:01:de:d0:65:c7:e4:26:ea:c8:
        6e:19:c4:f9:15:17:46:29:cd:22:b2:6d:5b:c9:da:84:16:73:
        d1:10:c7:90:6c:36:1c:1e:75:5d:cb:b0:af:f6:1f:13:d6:36:
        5c:a1:f5:97:06:72:62:d6:d3:29:e3:ea:a1:d7:34:89:c3:b0:
        60:16:33:58:ba:3b:86:50:3f:67:40:1f:b2:93:42:8e:83:1d:
        80:e4:5f:a3:e0:fb:44:bf:85:5c:da:ad:cc:93:0c:71:23:37:
        53:d5:cd:92:b1:e5:7f:b3:f0:89:a6:a2:d3:cd:97:30:30:f1:
        d8:89:3b:2f:63:c5:07:c6:22:23:50:a0:c6:f2:7f:26:0e:b1:
        1f:b7:4c:b9:80:5c:0e:91:0d:25:fd:e7:d7:af:78:e1:4f:fe:
        86:3a:45:25:64:12:df:53:f6:a0:f1:63:09:f7:49:b3:50:f3:
        e3:45:05:d2:4c:76:89:e6:c4:28:1b:d9:95:67:67:8f:96:96:
        01:a6:9f:0b:83:a7:bc:cd:21:2b:25:c3:2b:e1:7c:96:d0:8a:
        08:e5:4c:28:db:e5:72:9f:e3:bc:e2:78:cd:f3:f1:0d:40:f8:
        8c:27:4b:69:7a:1b:ab:74:71:50:dd:56:0e:fe:f2:e7:92:41:
        b9:e7:45:2d:62:ad:9e:35:0f:b3:e9:ea:8a:f7:4f:e2:dd:33:
        4d:e6:d4:29:85:d4:44:6b:a8:f4:49:4c:2c:f0:26:7e:0d:0b:
        e9:79:87:fe:75:b3:a2:f1:44:66:c9:25:4f:48:ff:57:fa:8b:
        62:5d:dc:d1:75:07:35:6e:66:ab:d0:79:10:44:93:8f:a2:3b:
        a3:29:5b:37:c0:ea:60:0b:0d:62:fd:b0:02:1b:ac:92:e4:2c:
        a0:5e:67:3e:a3:57:a2:d6:43:88:09:8e:1b:ab:b9:e6:50:8c:
        01:ca:f2:fc:85:cd:ee:27:78:b9:ec:89:70:06:c8:2d:29:0d:
        ce:69:a0:de:83:d6:d0:60:2f:31:f2:11:f2:d3:0b:9b:45:07:
        79:09:9f:b2:92:d4:de:6c:7d:b6:48:18:4a:31:b1:27:2a:02:
        79:ab:d7:a7:c5:96:e6:37:70:0c:a4:7a:30:55:d5:0c:e2:76:
        46:57:6c:09:61:18:9e:40:39:41:3d:df:dc:af:0f:1a:45:b4:
        5a:7a:a1:ba:f5:dc:26:8d:05:4e:23:84:cb:9e:61:f2:e3:ee:
        53:04:f1:85:57:59:56:e6:6d:6e:b4:9d:25:51:84:65:24:71:
        a7:71:a0:23:9c:67:49:51:73:d6:6e:7f:89:7e:fc:d4:96:84:
        6a:c2:cb:a6:44:26:83:52
-----BEGIN CERTIFICATE-----
MIIFIzCCAwugAwIBAgIBAzANBgkqhkiG9w0BAQUFADCBgDELMAkGA1UEBhMCQkEx
CzAJBgNVBAgTAlJTMRMwEQYDVQQHEwpCYW5qYSBMdWthMQwwCgYDVQQKEwNFVEYx
DzANBgNVBAsUBkVURl9DQTEPMA0GA1UEAxQGRVRGX0NBMR8wHQYJKoZIhvcNAQkB
FhBFVEZfQ0FAR01BSUwuQ09NMB4XDTIzMDEyMTIyNTExN1oXDTIzMDcyMDIyNTEx
N1owVTELMAkGA1UEBhMCQkgxCzAJBgNVBAgTAlJTMQwwCgYDVQQKEwNFVEYxCjAI
BgNVBAsTAWQxDTALBgNVBAMTBHVzcjQxEDAOBgkqhkiG9w0BCQEWAWUwggEiMA0G
CSqGSIb3DQEBAQUAA4IBDwAwggEKAoIBAQC6grU96wWFBDEVF0Qpp313tUPJ6u1v
YpsJQSI05572DH1TPpL1ecR4GG2JBxA/4LP99mkNXa/3IOn65MM1Ubsexmu7YgOT
hQROYUxhs0hm+GU1AxkxeUQk7AsCSE3/4i6jub3qxL5i0gmCzcypEEsL2fcobok7
oTodtl4TDcTERYbOKTxcm093+gvUd7aIf2KPKzJcFg1NaqEvIALE0gl5sDEDWIGY
y2OOc/RXo96UHliNWiFsGdECbqjJq/bIfsTag1UlpYR821XSxK1s2xCg5qHlR5mk
LUzc3BXDyw/671f2kPDcGFn2UkFOxP2D0To+u8a4cu7u4zMcSURgF0PLAgMBAAGj
gdEwgc4wCQYDVR0TBAIwADALBgNVHQ8EBAMCBJAwEwYDVR0lBAwwCgYIKwYBBQUH
AwIwLAYJYIZIAYb4QgENBB8WHU9wZW5TU0wgR2VuZXJhdGVkIENlcnRpZmljYXRl
MB0GA1UdDgQWBBQlBrCt5gv2mUbI/UZsQmSC8w+A8DAfBgNVHSMEGDAWgBTeacFi
L2QxfFApuXk1WcamlegChzAxBgNVHR8EKjAoMCagJKAihiBodHRwOi8vMTkyLjE2
OC4yMS44OS9yb290Y3JsLnBlbTANBgkqhkiG9w0BAQUFAAOCAgEAA8wCqMnHI3YM
Ad7QZcfkJurIbhnE+RUXRinNIrJtW8nahBZz0RDHkGw2HB51Xcuwr/YfE9Y2XKH1
lwZyYtbTKePqodc0icOwYBYzWLo7hlA/Z0AfspNCjoMdgORfo+D7RL+FXNqtzJMM
cSM3U9XNkrHlf7Pwiaai082XMDDx2Ik7L2PFB8YiI1CgxvJ/Jg6xH7dMuYBcDpEN
Jf3n16944U/+hjpFJWQS31P2oPFjCfdJs1Dz40UF0kx2iebEKBvZlWdnj5aWAaaf
C4OnvM0hKyXDK+F8ltCKCOVMKNvlcp/jvOJ4zfPxDUD4jCdLaXobq3RxUN1WDv7y
55JBuedFLWKtnjUPs+nqivdP4t0zTebUKYXURGuo9ElMLPAmfg0L6XmH/nWzovFE
ZsklT0j/V/qLYl3c0XUHNW5mq9B5EESTj6I7oylbN8DqYAsNYv2wAhuskuQsoF5n
PqNXotZDiAmOG6u55lCMAcry/IXN7id4ueyJcAbILSkNzmmg3oPW0GAvMfIR8tML
m0UHeQmfspLU3mx9tkgYSjGxJyoCeavXp8WW5jdwDKR6MFXVDOJ2RldsCWEYnkA5
QT3f3K8PGkW0WnqhuvXcJo0FTiOEy55h8uPuUwTxhVdZVuZtbrSdJVGEZSRxp3Gg
I5xnSVFz1m5/iX781JaEasLLpkQmg1I=
-----END CERTIFICATE-----
