Certificate:
    Data:
        Version: 3 (0x2)
        Serial Number: 4 (0x4)
        Signature Algorithm: sha1WithRSAEncryption
        Issuer: C=BA, ST=RS, L=Banja Luka, O=ETF, OU=ETF_CA, CN=ETF_CA/emailAddress=ETF_CA@GMAIL.COM
        Validity
            Not Before: Jan 22 21:04:41 2023 GMT
            Not After : Jul 21 21:04:41 2023 GMT
        Subject: C=BH, ST=RS, O=ETF, OU=ETF_STUDENT, CN=dafimjesalica/emailAddress=nemanja@gmail.com
        Subject Public Key Info:
            Public Key Algorithm: rsaEncryption
                Public-Key: (2048 bit)
                Modulus:
                    00:ba:82:b5:3d:eb:05:85:04:31:15:17:44:29:a7:
                    7d:77:b5:43:c9:ea:ed:6f:62:9b:09:41:22:34:e7:
                    9e:f6:0c:7d:53:3e:92:f5:79:c4:78:18:6d:89:07:
                    10:3f:e0:b3:fd:f6:69:0d:5d:af:f7:20:e9:fa:e4:
                    c3:35:51:bb:1e:c6:6b:bb:62:03:93:85:04:4e:61:
                    4c:61:b3:48:66:f8:65:35:03:19:31:79:44:24:ec:
                    0b:02:48:4d:ff:e2:2e:a3:b9:bd:ea:c4:be:62:d2:
                    09:82:cd:cc:a9:10:4b:0b:d9:f7:28:6e:89:3b:a1:
                    3a:1d:b6:5e:13:0d:c4:c4:45:86:ce:29:3c:5c:9b:
                    4f:77:fa:0b:d4:77:b6:88:7f:62:8f:2b:32:5c:16:
                    0d:4d:6a:a1:2f:20:02:c4:d2:09:79:b0:31:03:58:
                    81:98:cb:63:8e:73:f4:57:a3:de:94:1e:58:8d:5a:
                    21:6c:19:d1:02:6e:a8:c9:ab:f6:c8:7e:c4:da:83:
                    55:25:a5:84:7c:db:55:d2:c4:ad:6c:db:10:a0:e6:
                    a1:e5:47:99:a4:2d:4c:dc:dc:15:c3:cb:0f:fa:ef:
                    57:f6:90:f0:dc:18:59:f6:52:41:4e:c4:fd:83:d1:
                    3a:3e:bb:c6:b8:72:ee:ee:e3:33:1c:49:44:60:17:
                    43:cb
                Exponent: 65537 (0x10001)
        X509v3 extensions:
            X509v3 Basic Constraints: 
                CA:FALSE
            X509v3 Key Usage: 
                Digital Signature, Data Encipherment
            X509v3 Extended Key Usage: 
                TLS Web Client Authentication
            Netscape Comment: 
                OpenSSL Generated Certificate
            X509v3 Subject Key Identifier: 
                25:06:B0:AD:E6:0B:F6:99:46:C8:FD:46:6C:42:64:82:F3:0F:80:F0
            X509v3 Authority Key Identifier: 
                DE:69:C1:62:2F:64:31:7C:50:29:B9:79:35:59:C6:A6:95:E8:02:87
            X509v3 CRL Distribution Points: 
                Full Name:
                  URI:http://192.168.21.89/rootcrl.pem
    Signature Algorithm: sha1WithRSAEncryption
    Signature Value:
        0d:a2:9c:2b:c5:88:0f:b6:a3:9e:42:e7:7c:38:af:d7:ac:f8:
        bd:71:56:dd:6a:d2:4d:09:31:f6:8e:fe:67:28:0a:f1:3a:cf:
        d5:63:64:f7:d3:7e:3e:c4:c6:55:48:0e:64:81:50:96:db:26:
        a2:c7:88:a5:bc:1c:3c:d9:87:7f:95:99:7c:cb:89:ce:43:6b:
        40:76:65:ca:0a:04:db:1d:27:f1:34:f2:4e:5a:2d:d8:ce:c1:
        9e:2b:99:40:16:d9:9f:c6:ec:3a:50:75:23:37:74:1e:c8:e5:
        0c:8a:ab:b6:45:92:b3:47:99:06:17:9f:cf:0a:15:87:12:d2:
        90:51:32:4f:9c:3e:65:18:60:3d:83:5f:52:12:22:f0:c1:ee:
        91:be:27:f4:9b:88:35:ac:31:e8:e6:a6:2f:fd:d4:f0:33:34:
        15:da:8d:27:d4:17:95:ea:5c:b5:20:fe:6d:c6:05:d4:27:07:
        1c:59:84:97:1d:33:75:f6:03:aa:4c:f6:ca:38:78:3b:46:2a:
        78:61:50:c9:3a:bb:d5:2a:08:49:8f:22:a5:01:b5:79:58:b3:
        fb:00:c1:be:3f:c4:ac:17:db:cd:b2:27:b7:7a:fc:a9:b9:ff:
        93:1b:10:40:6f:5d:1e:f7:b5:d2:7a:01:54:5c:f1:47:36:21:
        1a:b8:d7:ff:a4:4b:a3:ac:e5:17:d4:b8:eb:c3:ce:4b:85:cc:
        32:9d:13:ea:a1:1f:f2:0d:cd:40:4f:29:ca:03:cf:3a:ec:83:
        07:df:b2:05:49:a9:84:1e:8b:88:8a:9f:c8:cf:66:a6:f3:b3:
        a2:4a:f8:84:99:bb:ca:33:c5:3d:55:4a:e0:5b:e8:12:66:c4:
        78:63:3f:e1:57:97:81:21:53:39:c6:24:e2:e8:02:fb:28:58:
        86:14:c1:39:70:9c:c1:b6:a3:30:fd:b3:04:fc:e5:cf:35:26:
        15:54:fe:e2:7c:bf:c2:e8:0c:65:83:e3:9f:96:67:43:3f:24:
        cc:3a:f0:28:b2:08:f5:56:fb:03:8b:e2:b3:be:84:41:c8:d1:
        6e:d3:43:1a:9a:84:8e:b6:f8:26:9d:0d:be:44:2a:19:cc:2e:
        6c:ed:51:17:5e:fe:8b:f2:10:47:fe:50:f9:d9:12:da:b3:bb:
        52:68:6b:9d:57:e9:58:a6:3b:9a:c4:ac:55:7b:76:49:64:10:
        ab:fc:9e:35:27:bb:74:ef:7f:8a:7f:13:05:b9:35:5e:5b:d2:
        1e:d1:f4:55:38:d3:bd:43:d7:cb:91:ba:38:73:fc:cb:3a:6a:
        78:fb:eb:cb:64:e8:b1:58:fa:94:e2:7a:27:0d:8a:87:95:a1:
        7a:d2:27:7e:25:0f:29:6e
-----BEGIN CERTIFICATE-----
MIIFRjCCAy6gAwIBAgIBBDANBgkqhkiG9w0BAQUFADCBgDELMAkGA1UEBhMCQkEx
CzAJBgNVBAgTAlJTMRMwEQYDVQQHEwpCYW5qYSBMdWthMQwwCgYDVQQKEwNFVEYx
DzANBgNVBAsUBkVURl9DQTEPMA0GA1UEAxQGRVRGX0NBMR8wHQYJKoZIhvcNAQkB
FhBFVEZfQ0FAR01BSUwuQ09NMB4XDTIzMDEyMjIxMDQ0MVoXDTIzMDcyMTIxMDQ0
MVoweDELMAkGA1UEBhMCQkgxCzAJBgNVBAgTAlJTMQwwCgYDVQQKEwNFVEYxFDAS
BgNVBAsUC0VURl9TVFVERU5UMRYwFAYDVQQDEw1kYWZpbWplc2FsaWNhMSAwHgYJ
KoZIhvcNAQkBFhFuZW1hbmphQGdtYWlsLmNvbTCCASIwDQYJKoZIhvcNAQEBBQAD
ggEPADCCAQoCggEBALqCtT3rBYUEMRUXRCmnfXe1Q8nq7W9imwlBIjTnnvYMfVM+
kvV5xHgYbYkHED/gs/32aQ1dr/cg6frkwzVRux7Ga7tiA5OFBE5hTGGzSGb4ZTUD
GTF5RCTsCwJITf/iLqO5verEvmLSCYLNzKkQSwvZ9yhuiTuhOh22XhMNxMRFhs4p
PFybT3f6C9R3toh/Yo8rMlwWDU1qoS8gAsTSCXmwMQNYgZjLY45z9Fej3pQeWI1a
IWwZ0QJuqMmr9sh+xNqDVSWlhHzbVdLErWzbEKDmoeVHmaQtTNzcFcPLD/rvV/aQ
8NwYWfZSQU7E/YPROj67xrhy7u7jMxxJRGAXQ8sCAwEAAaOB0TCBzjAJBgNVHRME
AjAAMAsGA1UdDwQEAwIEkDATBgNVHSUEDDAKBggrBgEFBQcDAjAsBglghkgBhvhC
AQ0EHxYdT3BlblNTTCBHZW5lcmF0ZWQgQ2VydGlmaWNhdGUwHQYDVR0OBBYEFCUG
sK3mC/aZRsj9RmxCZILzD4DwMB8GA1UdIwQYMBaAFN5pwWIvZDF8UCm5eTVZxqaV
6AKHMDEGA1UdHwQqMCgwJqAkoCKGIGh0dHA6Ly8xOTIuMTY4LjIxLjg5L3Jvb3Rj
cmwucGVtMA0GCSqGSIb3DQEBBQUAA4ICAQANopwrxYgPtqOeQud8OK/XrPi9cVbd
atJNCTH2jv5nKArxOs/VY2T3034+xMZVSA5kgVCW2yaix4ilvBw82Yd/lZl8y4nO
Q2tAdmXKCgTbHSfxNPJOWi3YzsGeK5lAFtmfxuw6UHUjN3QeyOUMiqu2RZKzR5kG
F5/PChWHEtKQUTJPnD5lGGA9g19SEiLwwe6Rvif0m4g1rDHo5qYv/dTwMzQV2o0n
1BeV6ly1IP5txgXUJwccWYSXHTN19gOqTPbKOHg7Rip4YVDJOrvVKghJjyKlAbV5
WLP7AMG+P8SsF9vNsie3evypuf+TGxBAb10e97XSegFUXPFHNiEauNf/pEujrOUX
1Ljrw85LhcwynRPqoR/yDc1ATynKA8867IMH37IFSamEHouIip/Iz2am87OiSviE
mbvKM8U9VUrgW+gSZsR4Yz/hV5eBIVM5xiTi6AL7KFiGFME5cJzBtqMw/bME/OXP
NSYVVP7ifL/C6Axlg+OflmdDPyTMOvAosgj1VvsDi+KzvoRByNFu00MamoSOtvgm
nQ2+RCoZzC5s7VEXXv6L8hBH/lD52RLas7tSaGudV+lYpjuaxKxVe3ZJZBCr/J41
J7t073+KfxMFuTVeW9Ie0fRVONO9Q9fLkbo4c/zLOmp4++vLZOixWPqU4nonDYqH
laF60id+JQ8pbg==
-----END CERTIFICATE-----
